; Function Attrs: nounwind uwtable
define internal fastcc ptr @vectorcall_method(ptr noundef %0, ptr noundef nonnull %1, i64 noundef range(i64 1, 4) %2) unnamed_addr #1 {
  %4 = tail call align 8 ptr @llvm.threadlocal.address.p0(ptr align 8 @_Py_tss_tstate)
  %5 = load ptr, ptr %4, align 8, !tbaa !22
  %6 = load ptr, ptr %1, align 8, !tbaa !105
  %7 = getelementptr i8, ptr %6, i64 8
  %.val23.i.i = load ptr, ptr %7, align 8, !tbaa !116
  %8 = tail call ptr @_PyType_LookupRefAndVersion(ptr noundef %.val23.i.i, ptr noundef %0, ptr noundef null)
  %9 = icmp eq ptr %8, null
  br i1 %9, label %lookup_maybe_method.exit.thread8.i, label %10

10:                                               ; preds = %3
  %11 = getelementptr i8, ptr %8, i64 8
  %.val22.i.i = load ptr, ptr %11, align 8, !tbaa !116
  %12 = getelementptr i8, ptr %.val22.i.i, i64 168
  %.val24.i.i = load i64, ptr %12, align 8, !tbaa !108
  %13 = and i64 %.val24.i.i, 131072
  %.not.i.i = icmp eq i64 %13, 0
  br i1 %.not.i.i, label %14, label %28

14:                                               ; preds = %10
  %15 = getelementptr inbounds nuw i8, ptr %.val22.i.i, i64 272
  %16 = load ptr, ptr %15, align 8, !tbaa !239
  %.not20.i.i = icmp eq ptr %16, null
  br i1 %.not20.i.i, label %28, label %17

17:                                               ; preds = %14
  %.val.i.i = load ptr, ptr %7, align 8, !tbaa !116
  %18 = tail call ptr %16(ptr noundef nonnull %8, ptr noundef nonnull %6, ptr noundef %.val.i.i) #24
  %19 = load i32, ptr %8, align 8, !tbaa !102
  %.not.i.i.i = icmp sgt i32 %19, -1
  br i1 %.not.i.i.i, label %20, label %lookup_maybe_method.exit.i

20:                                               ; preds = %17
  %21 = add nsw i32 %19, -1
  store i32 %21, ptr %8, align 8, !tbaa !102
  %22 = icmp eq i32 %21, 0
  br i1 %22, label %23, label %lookup_maybe_method.exit.i

23:                                               ; preds = %20
  tail call void @_Py_Dealloc(ptr noundef nonnull %8) #24
  br label %lookup_maybe_method.exit.i

lookup_maybe_method.exit.i:                       ; preds = %23, %20, %17
  %24 = icmp eq ptr %18, null
  br i1 %24, label %lookup_maybe_method.exit.thread8.i, label %lookup_maybe_method.exit.i._crit_edge

lookup_maybe_method.exit.i._crit_edge:            ; preds = %lookup_maybe_method.exit.i
  %.phi.trans.insert = getelementptr i8, ptr %18, i64 8
  %.val.i.i.i.pre = load ptr, ptr %.phi.trans.insert, align 8, !tbaa !116
  %.phi.trans.insert20 = getelementptr i8, ptr %.val.i.i.i.pre, i64 168
  %.val6.i.i.i.pre = load i64, ptr %.phi.trans.insert20, align 8, !tbaa !108
  br label %28

lookup_maybe_method.exit.thread8.i:               ; preds = %lookup_maybe_method.exit.i, %3
  %25 = tail call ptr @PyErr_Occurred() #24
  %.not.i11 = icmp eq ptr %25, null
  br i1 %.not.i11, label %26, label %lookup_method.exit

26:                                               ; preds = %lookup_maybe_method.exit.thread8.i
  %27 = load ptr, ptr @PyExc_AttributeError, align 8, !tbaa !105
  tail call void @PyErr_SetObject(ptr noundef %27, ptr noundef %0) #24
  br label %lookup_method.exit

28:                                               ; preds = %lookup_maybe_method.exit.i._crit_edge, %14, %10
  %.val6.i.i.i = phi i64 [ %.val24.i.i, %10 ], [ %.val6.i.i.i.pre, %lookup_maybe_method.exit.i._crit_edge ], [ %.val24.i.i, %14 ]
  %.val.i.i.i = phi ptr [ %.val22.i.i, %10 ], [ %.val.i.i.i.pre, %lookup_maybe_method.exit.i._crit_edge ], [ %.val22.i.i, %14 ]
  %.0.i7.i.ph = phi ptr [ %8, %10 ], [ %18, %lookup_maybe_method.exit.i._crit_edge ], [ %8, %14 ]
  %29 = add nuw i64 %2, 9223372036854775807
  %30 = lshr exact i64 %13, 14
  %.07.idx.i = xor i64 %30, 8
  %.07.i = getelementptr i8, ptr %1, i64 %.07.idx.i
  %.0.i = select i1 %.not.i.i, i64 %29, i64 %2
  %31 = and i64 %.val6.i.i.i, 2048
  %.not.i.i.i13 = icmp eq i64 %31, 0
  br i1 %.not.i.i.i13, label %_PyVectorcall_FunctionInline.exit.thread.i.i, label %_PyVectorcall_FunctionInline.exit.i.i

_PyVectorcall_FunctionInline.exit.i.i:            ; preds = %28
  %32 = getelementptr inbounds nuw i8, ptr %.val.i.i.i, i64 56
  %33 = load i64, ptr %32, align 8, !tbaa !274
  %34 = getelementptr i8, ptr %.0.i7.i.ph, i64 %33
  %.0.copyload.i.i.i = load ptr, ptr %34, align 1
  %35 = icmp eq ptr %.0.copyload.i.i.i, null
  br i1 %35, label %_PyVectorcall_FunctionInline.exit.thread.i.i, label %38

_PyVectorcall_FunctionInline.exit.thread.i.i:     ; preds = %_PyVectorcall_FunctionInline.exit.i.i, %28
  %36 = and i64 %.0.i, 9223372036854775807
  %37 = tail call ptr @_PyObject_MakeTpCall(ptr noundef %5, ptr noundef nonnull %.0.i7.i.ph, ptr noundef %.07.i, i64 noundef %36, ptr noundef null) #24
  br label %vectorcall_unbound.exit

38:                                               ; preds = %_PyVectorcall_FunctionInline.exit.i.i
  %39 = tail call ptr %.0.copyload.i.i.i(ptr noundef nonnull %.0.i7.i.ph, ptr noundef %.07.i, i64 noundef %.0.i, ptr noundef null) #24
  %40 = tail call ptr @_Py_CheckFunctionResult(ptr noundef %5, ptr noundef nonnull %.0.i7.i.ph, ptr noundef %39, ptr noundef null) #24
  br label %vectorcall_unbound.exit

vectorcall_unbound.exit:                          ; preds = %_PyVectorcall_FunctionInline.exit.thread.i.i, %38
  %.0.i.i = phi ptr [ %37, %_PyVectorcall_FunctionInline.exit.thread.i.i ], [ %40, %38 ]
  %41 = load i32, ptr %.0.i7.i.ph, align 8, !tbaa !102
  %.not.i = icmp sgt i32 %41, -1
  br i1 %.not.i, label %42, label %lookup_method.exit

42:                                               ; preds = %vectorcall_unbound.exit
  %43 = add nsw i32 %41, -1
  store i32 %43, ptr %.0.i7.i.ph, align 8, !tbaa !102
  %44 = icmp eq i32 %43, 0
  br i1 %44, label %45, label %lookup_method.exit

45:                                               ; preds = %42
  tail call void @_Py_Dealloc(ptr noundef nonnull %.0.i7.i.ph) #24
  br label %lookup_method.exit

lookup_method.exit:                               ; preds = %45, %42, %vectorcall_unbound.exit, %26, %lookup_maybe_method.exit.thread8.i
  %.0 = phi ptr [ null, %lookup_maybe_method.exit.thread8.i ], [ null, %26 ], [ %.0.i.i, %vectorcall_unbound.exit ], [ %.0.i.i, %42 ], [ %.0.i.i, %45 ]
  ret ptr %.0
}